; ModuleID = '56/41.c'
source_filename = "56/41.c"
target datalayout = "e-m:e-p270:32:32-p271:32:32-p272:64:64-i64:64-f80:128-n8:16:32:64-S128"
target triple = "x86_64-pc-linux-gnu"

@.str = private unnamed_addr constant [3 x i8] c"%d\00", align 1
@.str.1 = private unnamed_addr constant [4 x i8] c"%d\0A\00", align 1

; Function Attrs: noinline nounwind uwtable
define dso_local i32 @main(i32 %0, i8** %1) #0 {
  %3 = alloca i32, align 4
  %4 = alloca i32, align 4
  %5 = alloca i8**, align 8
  %6 = alloca i32, align 4
  %7 = alloca i32, align 4
  %8 = alloca i32, align 4
  %9 = alloca i32, align 4
  %10 = alloca i32, align 4
  store i32 0, i32* %3, align 4
  store i32 %0, i32* %4, align 4
  store i8** %1, i8*** %5, align 8
  %11 = call i32 (i8*, ...) @__isoc99_scanf(i8* getelementptr inbounds ([3 x i8], [3 x i8]* @.str, i64 0, i64 0), i32* %9)
  %12 = load i32, i32* %9, align 4
  %13 = sdiv i32 %12, 100
  store i32 %13, i32* %6, align 4
  %14 = load i32, i32* %9, align 4
  %15 = load i32, i32* %6, align 4
  %16 = mul nsw i32 100, %15
  %17 = sub nsw i32 %14, %16
  %18 = sdiv i32 %17, 10
  store i32 %18, i32* %7, align 4
  %19 = load i32, i32* %9, align 4
  %20 = load i32, i32* %6, align 4
  %21 = mul nsw i32 100, %20
  %22 = sub nsw i32 %19, %21
  %23 = load i32, i32* %7, align 4
  %24 = mul nsw i32 10, %23
  %25 = sub nsw i32 %22, %24
  store i32 %25, i32* %8, align 4
  %26 = load i32, i32* %8, align 4
  %27 = mul nsw i32 100, %26
  %28 = load i32, i32* %7, align 4
  %29 = mul nsw i32 10, %28
  %30 = add nsw i32 %27, %29
  %31 = load i32, i32* %6, align 4
  %32 = add nsw i32 %30, %31
  store i32 %32, i32* %10, align 4
  %33 = load i32, i32* %10, align 4
  %34 = call i32 (i8*, ...) @printf(i8* getelementptr inbounds ([4 x i8], [4 x i8]* @.str.1, i64 0, i64 0), i32 %33)
  ret i32 0
}

declare dso_local i32 @__isoc99_scanf(i8*, ...) #1

declare dso_local i32 @printf(i8*, ...) #1


!llvm.module.flags = !{!0}
!llvm.ident = !{!1}

!0 = !{i32 1, !"wchar_size", i32 4}
!1 = !{!"clang version 10.0.0-4ubuntu1 "}
